target datalayout = "e-m:e-p270:32:32-p271:32:32-p272:64:64-i64:64-i128:128-f80:128-n8:16:32:64-S128"
target triple = "x86_64-pc-linux-gnu"

%struct.slurm_conf_t = type { i64, ptr, i16, ptr, ptr, ptr, ptr, ptr, i16, ptr, ptr, ptr, ptr, ptr, ptr, ptr, i16, ptr, ptr, ptr, ptr, i16, ptr, ptr, ptr, i64, ptr, ptr, ptr, ptr, i16, ptr, ptr, i16, i32, ptr, i32, ptr, i32, i32, ptr, ptr, i64, i64, ptr, i16, i16, ptr, i32, i32, ptr, i32, ptr, i32, i16, i16, i16, ptr, i16, i16, ptr, ptr, i32, i16, i16, ptr, i32, i16, ptr, ptr, ptr, ptr, i16, ptr, ptr, ptr, ptr, i32, ptr, ptr, ptr, ptr, i16, i16, ptr, i32, i32, i32, i16, i16, ptr, ptr, i16, ptr, ptr, i32, i32, i32, i32, i32, i64, i32, i32, i16, ptr, ptr, i32, ptr, ptr, ptr, i16, i32, ptr, ptr, i16, ptr, ptr, i32, i16, ptr, ptr, ptr, ptr, i32, i32, i16, i16, i32, ptr, i16, ptr, i32, i32, i32, i32, i32, i32, ptr, i16, ptr, ptr, i32, i16, ptr, i32, i16, i16, ptr, ptr, ptr, i16, ptr, ptr, ptr, ptr, i16, i16, ptr, i16, ptr, i16, ptr, i16, ptr, i16, ptr, ptr, ptr, ptr, i16, ptr, ptr, ptr, i32, ptr, i32, ptr, ptr, i16, ptr, ptr, i32, i16, ptr, ptr, i16, i16, ptr, i16, ptr, ptr, ptr, i32, ptr, i16, i16, ptr, ptr, ptr, ptr, ptr, ptr, ptr, ptr, i16, i32, i16, ptr, ptr, ptr, ptr, i32, ptr, ptr, ptr, i16, ptr, ptr, ptr, i16, ptr, i16, ptr, i16, i16, ptr }
%struct.trigger_info_msg = type { i32, ptr }
%struct.trigger_info = type { i16, i32, i16, ptr, i32, i32, i16, i32, ptr }

@slurm_conf = external global %struct.slurm_conf_t, align 8
@.str.18 = private unnamed_addr constant [3 x i8] c"%s\00", align 1
@.str.19 = private unnamed_addr constant [23 x i8] c"Trigger has no entries\00", align 1
@.str.20 = private unnamed_addr constant [59 x i8] c"INDEX TRIG_ID RES_TYPE RES_ID TRIG_TYPE OFFSET UID PROGRAM\00", align 1
@.str.21 = private unnamed_addr constant [33 x i8] c"trigger[%u] %u %s %s %s %d %u %s\00", align 1
@_trig_offset.rc = internal global i32 0, align 4

; Function Attrs: nounwind uwtable
define internal i32 @_trig_offset(i16 noundef zeroext %0) #0 {
  %2 = alloca i16, align 2
  store i16 %0, ptr %2, align 2
  %3 = load i16, ptr %2, align 2
  %4 = zext i16 %3 to i32
  store i32 %4, ptr @_trig_offset.rc, align 4
  %5 = load i32, ptr @_trig_offset.rc, align 4
  %6 = sub nsw i32 %5, 32768
  store i32 %6, ptr @_trig_offset.rc, align 4
  %7 = load i32, ptr @_trig_offset.rc, align 4
  ret i32 %7
}

; Function Attrs: nounwind uwtable
define internal void @_dump_trigger_msg(ptr noundef %0, ptr noundef %1) #0 {
  %3 = alloca ptr, align 8
  %4 = alloca ptr, align 8
  %5 = alloca i32, align 4
  %6 = alloca i32, align 4
  store ptr %0, ptr %3, align 8
  store ptr %1, ptr %4, align 8
  call void @llvm.lifetime.start.p0(i64 4, ptr %5) #10
  %7 = load i64, ptr getelementptr inbounds nuw (%struct.slurm_conf_t, ptr @slurm_conf, i32 0, i32 42), align 8
  %8 = and i64 %7, 4
  %9 = icmp ne i64 %8, 0
  br i1 %9, label %11, label %10

10:                                               ; preds = %2
  store i32 1, ptr %6, align 4
  br label %133

11:                                               ; preds = %2
  br label %12

12:                                               ; preds = %11
  br label %13

13:                                               ; preds = %12
  %14 = call i32 @get_log_level()
  %15 = icmp sge i32 %14, 3
  br i1 %15, label %16, label %18

16:                                               ; preds = %13
  %17 = load ptr, ptr %3, align 8
  call void (i32, ptr, ...) @log_var(i32 noundef 3, ptr noundef @.str.18, ptr noundef %17)
  br label %18

18:                                               ; preds = %16, %13
  br label %19

19:                                               ; preds = %18
  br label %20

20:                                               ; preds = %19
  br label %21

21:                                               ; preds = %20
  br label %22

22:                                               ; preds = %21
  %23 = load ptr, ptr %4, align 8
  %24 = icmp eq ptr %23, null
  br i1 %24, label %30, label %25

25:                                               ; preds = %22
  %26 = load ptr, ptr %4, align 8
  %27 = getelementptr inbounds nuw %struct.trigger_info_msg, ptr %26, i32 0, i32 0
  %28 = load i32, ptr %27, align 8
  %29 = icmp eq i32 %28, 0
  br i1 %29, label %30, label %41

30:                                               ; preds = %25, %22
  br label %31

31:                                               ; preds = %30
  br label %32

32:                                               ; preds = %31
  %33 = call i32 @get_log_level()
  %34 = icmp sge i32 %33, 3
  br i1 %34, label %35, label %36

35:                                               ; preds = %32
  call void (i32, ptr, ...) @log_var(i32 noundef 3, ptr noundef @.str.19)
  br label %36

36:                                               ; preds = %35, %32
  br label %37

37:                                               ; preds = %36
  br label %38

38:                                               ; preds = %37
  br label %39

39:                                               ; preds = %38
  br label %40

40:                                               ; preds = %39
  store i32 1, ptr %6, align 4
  br label %133

41:                                               ; preds = %25
  br label %42

42:                                               ; preds = %41
  br label %43

43:                                               ; preds = %42
  %44 = call i32 @get_log_level()
  %45 = icmp sge i32 %44, 3
  br i1 %45, label %46, label %47

46:                                               ; preds = %43
  call void (i32, ptr, ...) @log_var(i32 noundef 3, ptr noundef @.str.20)
  br label %47

47:                                               ; preds = %46, %43
  br label %48

48:                                               ; preds = %47
  br label %49

49:                                               ; preds = %48
  br label %50

50:                                               ; preds = %49
  br label %51

51:                                               ; preds = %50
  store i32 0, ptr %5, align 4
  br label %52

52:                                               ; preds = %129, %51
  %53 = load i32, ptr %5, align 4
  %54 = load ptr, ptr %4, align 8
  %55 = getelementptr inbounds nuw %struct.trigger_info_msg, ptr %54, i32 0, i32 0
  %56 = load i32, ptr %55, align 8
  %57 = icmp ult i32 %53, %56
  br i1 %57, label %58, label %132

58:                                               ; preds = %52
  br label %59

59:                                               ; preds = %58
  br label %60

60:                                               ; preds = %59
  %61 = call i32 @get_log_level()
  %62 = icmp sge i32 %61, 3
  br i1 %62, label %63, label %124

63:                                               ; preds = %60
  %64 = load i32, ptr %5, align 4
  %65 = load ptr, ptr %4, align 8
  %66 = getelementptr inbounds nuw %struct.trigger_info_msg, ptr %65, i32 0, i32 1
  %67 = load ptr, ptr %66, align 8
  %68 = load i32, ptr %5, align 4
  %69 = sext i32 %68 to i64
  %70 = getelementptr inbounds %struct.trigger_info, ptr %67, i64 %69
  %71 = getelementptr inbounds nuw %struct.trigger_info, ptr %70, i32 0, i32 1
  %72 = load i32, ptr %71, align 4
  %73 = load ptr, ptr %4, align 8
  %74 = getelementptr inbounds nuw %struct.trigger_info_msg, ptr %73, i32 0, i32 1
  %75 = load ptr, ptr %74, align 8
  %76 = load i32, ptr %5, align 4
  %77 = sext i32 %76 to i64
  %78 = getelementptr inbounds %struct.trigger_info, ptr %75, i64 %77
  %79 = getelementptr inbounds nuw %struct.trigger_info, ptr %78, i32 0, i32 2
  %80 = load i16, ptr %79, align 8
  %81 = call ptr @trigger_res_type(i16 noundef zeroext %80)
  %82 = load ptr, ptr %4, align 8
  %83 = getelementptr inbounds nuw %struct.trigger_info_msg, ptr %82, i32 0, i32 1
  %84 = load ptr, ptr %83, align 8
  %85 = load i32, ptr %5, align 4
  %86 = sext i32 %85 to i64
  %87 = getelementptr inbounds %struct.trigger_info, ptr %84, i64 %86
  %88 = getelementptr inbounds nuw %struct.trigger_info, ptr %87, i32 0, i32 3
  %89 = load ptr, ptr %88, align 8
  %90 = load ptr, ptr %4, align 8
  %91 = getelementptr inbounds nuw %struct.trigger_info_msg, ptr %90, i32 0, i32 1
  %92 = load ptr, ptr %91, align 8
  %93 = load i32, ptr %5, align 4
  %94 = sext i32 %93 to i64
  %95 = getelementptr inbounds %struct.trigger_info, ptr %92, i64 %94
  %96 = getelementptr inbounds nuw %struct.trigger_info, ptr %95, i32 0, i32 5
  %97 = load i32, ptr %96, align 4
  %98 = call ptr @trigger_type(i32 noundef %97)
  %99 = load ptr, ptr %4, align 8
  %100 = getelementptr inbounds nuw %struct.trigger_info_msg, ptr %99, i32 0, i32 1
  %101 = load ptr, ptr %100, align 8
  %102 = load i32, ptr %5, align 4
  %103 = sext i32 %102 to i64
  %104 = getelementptr inbounds %struct.trigger_info, ptr %101, i64 %103
  %105 = getelementptr inbounds nuw %struct.trigger_info, ptr %104, i32 0, i32 6
  %106 = load i16, ptr %105, align 8
  %107 = call i32 @_trig_offset(i16 noundef zeroext %106)
  %108 = load ptr, ptr %4, align 8
  %109 = getelementptr inbounds nuw %struct.trigger_info_msg, ptr %108, i32 0, i32 1
  %110 = load ptr, ptr %109, align 8
  %111 = load i32, ptr %5, align 4
  %112 = sext i32 %111 to i64
  %113 = getelementptr inbounds %struct.trigger_info, ptr %110, i64 %112
  %114 = getelementptr inbounds nuw %struct.trigger_info, ptr %113, i32 0, i32 7
  %115 = load i32, ptr %114, align 4
  %116 = load ptr, ptr %4, align 8
  %117 = getelementptr inbounds nuw %struct.trigger_info_msg, ptr %116, i32 0, i32 1
  %118 = load ptr, ptr %117, align 8
  %119 = load i32, ptr %5, align 4
  %120 = sext i32 %119 to i64
  %121 = getelementptr inbounds %struct.trigger_info, ptr %118, i64 %120
  %122 = getelementptr inbounds nuw %struct.trigger_info, ptr %121, i32 0, i32 8
  %123 = load ptr, ptr %122, align 8
  call void (i32, ptr, ...) @log_var(i32 noundef 3, ptr noundef @.str.21, i32 noundef %64, i32 noundef %72, ptr noundef %81, ptr noundef %89, ptr noundef %98, i32 noundef %107, i32 noundef %115, ptr noundef %123)
  br label %124

124:                                              ; preds = %63, %60
  br label %125

125:                                              ; preds = %124
  br label %126

126:                                              ; preds = %125
  br label %127

127:                                              ; preds = %126
  br label %128

128:                                              ; preds = %127
  br label %129

129:                                              ; preds = %128
  %130 = load i32, ptr %5, align 4
  %131 = add nsw i32 %130, 1
  store i32 %131, ptr %5, align 4
  br label %52, !llvm.loop !11

132:                                              ; preds = %52
  store i32 0, ptr %6, align 4
  br label %133

133:                                              ; preds = %132, %40, %10
  call void @llvm.lifetime.end.p0(i64 4, ptr %5) #10
  %134 = load i32, ptr %6, align 4
  switch i32 %134, label %136 [
    i32 0, label %135
    i32 1, label %135
  ]

135:                                              ; preds = %133, %133
  ret void

136:                                              ; preds = %133
  unreachable
}