; Function Attrs: nounwind uwtable
define internal fastcc void @_dump_trigger_msg(ptr noundef %0, ptr noundef readonly captures(address_is_null) %1) unnamed_addr #0 {
  %3 = load i64, ptr getelementptr inbounds nuw (i8, ptr @slurm_conf, i64 320), align 8
  %4 = and i64 %3, 4
  %.not = icmp eq i64 %4, 0
  br i1 %.not, label %.loopexit, label %5

5:                                                ; preds = %2
  %6 = tail call i32 @get_log_level() #12
  %7 = icmp sgt i32 %6, 2
  br i1 %7, label %8, label %9

8:                                                ; preds = %5
  tail call void (i32, ptr, ...) @log_var(i32 noundef 3, ptr noundef nonnull @.str.18, ptr noundef %0) #12
  br label %9

9:                                                ; preds = %8, %5
  %10 = icmp eq ptr %1, null
  br i1 %10, label %14, label %11

11:                                               ; preds = %9
  %12 = load i32, ptr %1, align 8
  %13 = icmp eq i32 %12, 0
  br i1 %13, label %14, label %18

14:                                               ; preds = %11, %9
  %15 = tail call i32 @get_log_level() #12
  %16 = icmp sgt i32 %15, 2
  br i1 %16, label %17, label %.loopexit

17:                                               ; preds = %14
  tail call void (i32, ptr, ...) @log_var(i32 noundef 3, ptr noundef nonnull @.str.19) #12
  br label %.loopexit

18:                                               ; preds = %11
  %19 = tail call i32 @get_log_level() #12
  %20 = icmp sgt i32 %19, 2
  br i1 %20, label %21, label %22

21:                                               ; preds = %18
  tail call void (i32, ptr, ...) @log_var(i32 noundef 3, ptr noundef nonnull @.str.20) #12
  br label %22

22:                                               ; preds = %21, %18
  %23 = load i32, ptr %1, align 8
  %.not22 = icmp eq i32 %23, 0
  br i1 %.not22, label %.loopexit, label %.lr.ph

.lr.ph:                                           ; preds = %22
  %24 = getelementptr inbounds nuw i8, ptr %1, i64 8
  br label %25

25:                                               ; preds = %.lr.ph, %54
  %indvars.iv = phi i64 [ 0, %.lr.ph ], [ %indvars.iv.next, %54 ]
  %26 = tail call i32 @get_log_level() #12
  %27 = icmp sgt i32 %26, 2
  br i1 %27, label %28, label %54

28:                                               ; preds = %25
  %29 = load ptr, ptr %24, align 8
  %30 = getelementptr inbounds nuw %struct.trigger_info, ptr %29, i64 %indvars.iv
  %31 = getelementptr inbounds nuw i8, ptr %30, i64 4
  %32 = load i32, ptr %31, align 4
  %33 = getelementptr inbounds nuw i8, ptr %30, i64 8
  %34 = load i16, ptr %33, align 8
  %35 = tail call ptr @trigger_res_type(i16 noundef zeroext %34) #12
  %36 = load ptr, ptr %24, align 8
  %37 = getelementptr inbounds nuw %struct.trigger_info, ptr %36, i64 %indvars.iv
  %38 = getelementptr inbounds nuw i8, ptr %37, i64 16
  %39 = load ptr, ptr %38, align 8
  %40 = getelementptr inbounds nuw i8, ptr %37, i64 28
  %41 = load i32, ptr %40, align 4
  %42 = tail call ptr @trigger_type(i32 noundef %41) #12
  %43 = load ptr, ptr %24, align 8
  %44 = getelementptr inbounds nuw %struct.trigger_info, ptr %43, i64 %indvars.iv, i32 6
  %45 = load i16, ptr %44, align 8
  %46 = zext i16 %45 to i32
  %47 = add nsw i32 %46, -32768
  %48 = getelementptr inbounds nuw %struct.trigger_info, ptr %43, i64 %indvars.iv
  %49 = getelementptr inbounds nuw i8, ptr %48, i64 36
  %50 = load i32, ptr %49, align 4
  %51 = getelementptr inbounds nuw i8, ptr %48, i64 40
  %52 = load ptr, ptr %51, align 8
  %53 = trunc nuw nsw i64 %indvars.iv to i32
  tail call void (i32, ptr, ...) @log_var(i32 noundef 3, ptr noundef nonnull @.str.21, i32 noundef %53, i32 noundef %32, ptr noundef %35, ptr noundef %39, ptr noundef %42, i32 noundef %47, i32 noundef %50, ptr noundef %52) #12
  br label %54

54:                                               ; preds = %25, %28
  %indvars.iv.next = add nuw nsw i64 %indvars.iv, 1
  %55 = load i32, ptr %1, align 8
  %56 = zext i32 %55 to i64
  %57 = icmp samesign ult i64 %indvars.iv.next, %56
  br i1 %57, label %25, label %.loopexit, !llvm.loop !11

.loopexit:                                        ; preds = %54, %22, %14, %17, %2
  ret void
}